; Function Attrs: mustprogress nounwind memory(inaccessiblemem: write) uwtable
define noundef range(i64 -1575147300684, 1575146278002) i64 @_ZN8facebook5velox4util22daysSinceEpochFromDateEiii(i32 noundef %year, i32 noundef %month, i32 noundef %day) local_unnamed_addr #2 {
entry:
  %0 = add i32 %month, -13
  %or.cond.i = icmp ult i32 %0, -12
  %1 = add i32 %year, -292278995
  %or.cond1.i = icmp ult i32 %1, -584554050
  %or.cond9.i = or i1 %or.cond1.i, %or.cond.i
  %cmp7.i = icmp slt i32 %day, 1
  %or.cond10.i = or i1 %cmp7.i, %or.cond9.i
  br i1 %or.cond10.i, label %if.then, label %if.end9.i

if.end9.i:                                        ; preds = %entry
  %2 = and i32 %year, 3
  %cmp.i.i = icmp eq i32 %2, 0
  br i1 %cmp.i.i, label %land.rhs.i.i, label %_ZN8facebook5velox4util10isLeapYearEi.exit.thread16.i

_ZN8facebook5velox4util10isLeapYearEi.exit.thread16.i: ; preds = %if.end9.i
  %idxprom17.i = zext nneg i32 %month to i64
  %arrayidx1219.i = getelementptr inbounds nuw [13 x i32], ptr @_ZN8facebook5velox4utilL11kNormalDaysE, i64 0, i64 %idxprom17.i
  br label %_ZN8facebook5velox4util11isValidDateEiii.exit

land.rhs.i.i:                                     ; preds = %if.end9.i
  %rem1.i.i = srem i32 %year, 100
  %cmp2.not.i.i = icmp eq i32 %rem1.i.i, 0
  br i1 %cmp2.not.i.i, label %_ZN8facebook5velox4util10isLeapYearEi.exit.i, label %_ZN8facebook5velox4util10isLeapYearEi.exit.thread.i

_ZN8facebook5velox4util10isLeapYearEi.exit.thread.i: ; preds = %land.rhs.i.i
  %idxprom11.i = zext nneg i32 %month to i64
  %arrayidx13.i = getelementptr inbounds nuw [13 x i32], ptr @_ZN8facebook5velox4utilL9kLeapDaysE, i64 0, i64 %idxprom11.i
  br label %_ZN8facebook5velox4util11isValidDateEiii.exit

_ZN8facebook5velox4util10isLeapYearEi.exit.i:     ; preds = %land.rhs.i.i
  %rem3.i.i = srem i32 %year, 400
  %cmp4.i.i = icmp eq i32 %rem3.i.i, 0
  %idxprom.i = zext nneg i32 %month to i64
  %arrayidx.i = getelementptr inbounds nuw [13 x i32], ptr @_ZN8facebook5velox4utilL9kLeapDaysE, i64 0, i64 %idxprom.i
  %arrayidx12.i = getelementptr inbounds nuw [13 x i32], ptr @_ZN8facebook5velox4utilL11kNormalDaysE, i64 0, i64 %idxprom.i
  %spec.select.i = select i1 %cmp4.i.i, ptr %arrayidx.i, ptr %arrayidx12.i
  br label %_ZN8facebook5velox4util11isValidDateEiii.exit

_ZN8facebook5velox4util11isValidDateEiii.exit:    ; preds = %_ZN8facebook5velox4util10isLeapYearEi.exit.thread16.i, %_ZN8facebook5velox4util10isLeapYearEi.exit.thread.i, %_ZN8facebook5velox4util10isLeapYearEi.exit.i
  %3 = phi ptr [ %arrayidx1219.i, %_ZN8facebook5velox4util10isLeapYearEi.exit.thread16.i ], [ %arrayidx13.i, %_ZN8facebook5velox4util10isLeapYearEi.exit.thread.i ], [ %spec.select.i, %_ZN8facebook5velox4util10isLeapYearEi.exit.i ]
  %.pn.i = load i32, ptr %3, align 4
  %cond.i.not = icmp sgt i32 %day, %.pn.i
  br i1 %cond.i.not, label %if.then, label %while.cond.preheader

while.cond.preheader:                             ; preds = %_ZN8facebook5velox4util11isValidDateEiii.exit
  %cmp32 = icmp slt i32 %year, 1970
  br i1 %cmp32, label %while.body.preheader, label %while.cond1.preheader

while.body.preheader:                             ; preds = %while.cond.preheader
  %4 = tail call i32 @llvm.smax.i32(i32 %year, i32 1570)
  %5 = icmp slt i32 %year, 1570
  %umin = zext i1 %5 to i32
  %6 = add i32 %year, %umin
  %7 = sub i32 %4, %6
  %8 = udiv i32 %7, 400
  %9 = add nuw nsw i32 %8, %umin
  %10 = mul i32 %9, 400
  %11 = add i32 %year, %10
  %12 = zext nneg i32 %9 to i64
  %.neg = mul nsw i64 %12, -146097
  %13 = add i32 %11, 400
  %14 = add nsw i64 %.neg, -146097
  br label %while.cond1.preheader

if.then:                                          ; preds = %entry, %_ZN8facebook5velox4util11isValidDateEiii.exit
  tail call void @llvm.trap()
  unreachable

while.cond1.preheader:                            ; preds = %while.body.preheader, %while.cond.preheader
  %year.addr.0.lcssa = phi i32 [ %year, %while.cond.preheader ], [ %13, %while.body.preheader ]
  %daysSinceEpoch.0.lcssa = phi i64 [ 0, %while.cond.preheader ], [ %14, %while.body.preheader ]
  %cmp236 = icmp samesign ugt i32 %year.addr.0.lcssa, 2369
  br i1 %cmp236, label %while.body3.preheader, label %while.end6

while.body3.preheader:                            ; preds = %while.cond1.preheader
  %15 = add i32 %year.addr.0.lcssa, -2370
  %16 = urem i32 %15, 400
  %.neg42 = sub i32 %16, %15
  %17 = udiv i32 %15, 400
  %18 = zext nneg i32 %17 to i64
  %19 = mul nuw nsw i64 %18, 146097
  %20 = add nsw i64 %daysSinceEpoch.0.lcssa, %19
  %21 = add i32 %year.addr.0.lcssa, -400
  %22 = add i32 %.neg42, %21
  %23 = add nsw i64 %20, 146097
  br label %while.end6

while.end6:                                       ; preds = %while.body3.preheader, %while.cond1.preheader
  %year.addr.1.lcssa = phi i32 [ %year.addr.0.lcssa, %while.cond1.preheader ], [ %22, %while.body3.preheader ]
  %daysSinceEpoch.1.lcssa = phi i64 [ %daysSinceEpoch.0.lcssa, %while.cond1.preheader ], [ %23, %while.body3.preheader ]
  %sub7 = add nsw i32 %year.addr.1.lcssa, -1970
  %idxprom = zext nneg i32 %sub7 to i64
  %arrayidx = getelementptr inbounds nuw [401 x i32], ptr @_ZN8facebook5velox4utilL19kCumulativeYearDaysE, i64 0, i64 %idxprom
  %24 = load i32, ptr %arrayidx, align 4
  %25 = and i32 %year.addr.1.lcssa, 3
  %cmp.i = icmp eq i32 %25, 0
  br i1 %cmp.i, label %land.rhs.i, label %_ZN8facebook5velox4util10isLeapYearEi.exit.thread22

_ZN8facebook5velox4util10isLeapYearEi.exit.thread22: ; preds = %while.end6
  %sub1023 = add nsw i32 %month, -1
  %idxprom1124 = zext nneg i32 %sub1023 to i64
  %arrayidx1526 = getelementptr inbounds nuw [13 x i32], ptr @_ZN8facebook5velox4utilL15kCumulativeDaysE, i64 0, i64 %idxprom1124
  br label %26

land.rhs.i:                                       ; preds = %while.end6
  %rem1.i28.lhs.trunc = trunc nuw i32 %year.addr.1.lcssa to i16
  %rem1.i2829 = urem i16 %rem1.i28.lhs.trunc, 100
  %cmp2.not.i = icmp eq i16 %rem1.i2829, 0
  br i1 %cmp2.not.i, label %_ZN8facebook5velox4util10isLeapYearEi.exit, label %_ZN8facebook5velox4util10isLeapYearEi.exit.thread

_ZN8facebook5velox4util10isLeapYearEi.exit.thread: ; preds = %land.rhs.i
  %sub1016 = add nsw i32 %month, -1
  %idxprom1117 = zext nneg i32 %sub1016 to i64
  %arrayidx1218 = getelementptr inbounds nuw [13 x i32], ptr @_ZN8facebook5velox4utilL19kCumulativeLeapDaysE, i64 0, i64 %idxprom1117
  br label %26

_ZN8facebook5velox4util10isLeapYearEi.exit:       ; preds = %land.rhs.i
  %rem3.i3031 = urem i16 %rem1.i28.lhs.trunc, 400
  %cmp4.i = icmp eq i16 %rem3.i3031, 0
  %sub10 = add nsw i32 %month, -1
  %idxprom11 = zext nneg i32 %sub10 to i64
  %arrayidx12 = getelementptr inbounds nuw [13 x i32], ptr @_ZN8facebook5velox4utilL19kCumulativeLeapDaysE, i64 0, i64 %idxprom11
  %arrayidx15 = getelementptr inbounds nuw [13 x i32], ptr @_ZN8facebook5velox4utilL15kCumulativeDaysE, i64 0, i64 %idxprom11
  %spec.select = select i1 %cmp4.i, ptr %arrayidx12, ptr %arrayidx15
  br label %26

26:                                               ; preds = %_ZN8facebook5velox4util10isLeapYearEi.exit, %_ZN8facebook5velox4util10isLeapYearEi.exit.thread, %_ZN8facebook5velox4util10isLeapYearEi.exit.thread22
  %27 = phi ptr [ %arrayidx1526, %_ZN8facebook5velox4util10isLeapYearEi.exit.thread22 ], [ %arrayidx1218, %_ZN8facebook5velox4util10isLeapYearEi.exit.thread ], [ %spec.select, %_ZN8facebook5velox4util10isLeapYearEi.exit ]
  %cond = load i32, ptr %27, align 4
  %conv = sext i32 %24 to i64
  %conv16 = sext i32 %cond to i64
  %sub18 = add nsw i32 %day, -1
  %conv19 = zext nneg i32 %sub18 to i64
  %add8 = add nsw i64 %daysSinceEpoch.1.lcssa, %conv19
  %add17 = add nsw i64 %add8, %conv
  %add20 = add nsw i64 %add17, %conv16
  ret i64 %add20
}